target datalayout = "e-m:e-p270:32:32-p271:32:32-p272:64:64-i64:64-i128:128-f80:128-n8:16:32:64-S128"
target triple = "x86_64-pc-linux-gnu"

%struct.rgb_struct = type { double, double, double }
%struct.lab_struct = type { double, double, double }

; Function Attrs: nounwind uwtable
define void @LAB2RGB_real_01(ptr noundef %0) #0 {
  %2 = alloca ptr, align 8
  %3 = alloca %struct.rgb_struct, align 8
  %4 = alloca %struct.lab_struct, align 8
  %5 = alloca %struct.rgb_struct, align 8
  store ptr %0, ptr %2, align 8, !tbaa !21
  call void @llvm.lifetime.start.p0(i64 24, ptr %3) #11
  call void @llvm.lifetime.start.p0(i64 24, ptr %4) #11
  %6 = load ptr, ptr %2, align 8, !tbaa !21
  %7 = getelementptr inbounds double, ptr %6, i64 0
  %8 = load double, ptr %7, align 8, !tbaa !3
  %9 = getelementptr inbounds nuw %struct.lab_struct, ptr %4, i32 0, i32 0
  store double %8, ptr %9, align 8, !tbaa !15
  %10 = load ptr, ptr %2, align 8, !tbaa !21
  %11 = getelementptr inbounds double, ptr %10, i64 1
  %12 = load double, ptr %11, align 8, !tbaa !3
  %13 = getelementptr inbounds nuw %struct.lab_struct, ptr %4, i32 0, i32 1
  store double %12, ptr %13, align 8, !tbaa !17
  %14 = load ptr, ptr %2, align 8, !tbaa !21
  %15 = getelementptr inbounds double, ptr %14, i64 2
  %16 = load double, ptr %15, align 8, !tbaa !3
  %17 = getelementptr inbounds nuw %struct.lab_struct, ptr %4, i32 0, i32 2
  store double %16, ptr %17, align 8, !tbaa !18
  call void @llvm.lifetime.start.p0(i64 24, ptr %5) #11
  call void @LAB2RGB(ptr dead_on_unwind writable sret(%struct.rgb_struct) align 8 %5, ptr noundef byval(%struct.lab_struct) align 8 %4)
  call void @llvm.memcpy.p0.p0.i64(ptr align 8 %3, ptr align 8 %5, i64 24, i1 false), !tbaa.struct !24
  call void @llvm.lifetime.end.p0(i64 24, ptr %5) #11
  %18 = getelementptr inbounds nuw %struct.rgb_struct, ptr %3, i32 0, i32 0
  %19 = load double, ptr %18, align 8, !tbaa !7
  %20 = fdiv double %19, 2.550000e+02
  %21 = load ptr, ptr %2, align 8, !tbaa !21
  %22 = getelementptr inbounds double, ptr %21, i64 0
  store double %20, ptr %22, align 8, !tbaa !3
  %23 = getelementptr inbounds nuw %struct.rgb_struct, ptr %3, i32 0, i32 1
  %24 = load double, ptr %23, align 8, !tbaa !9
  %25 = fdiv double %24, 2.550000e+02
  %26 = load ptr, ptr %2, align 8, !tbaa !21
  %27 = getelementptr inbounds double, ptr %26, i64 1
  store double %25, ptr %27, align 8, !tbaa !3
  %28 = getelementptr inbounds nuw %struct.rgb_struct, ptr %3, i32 0, i32 2
  %29 = load double, ptr %28, align 8, !tbaa !10
  %30 = fdiv double %29, 2.550000e+02
  %31 = load ptr, ptr %2, align 8, !tbaa !21
  %32 = getelementptr inbounds double, ptr %31, i64 2
  store double %30, ptr %32, align 8, !tbaa !3
  call void @llvm.lifetime.end.p0(i64 24, ptr %4) #11
  call void @llvm.lifetime.end.p0(i64 24, ptr %3) #11
  ret void
}