; Function Attrs: mustprogress nofree nounwind willreturn uwtable
define void @LAB2RGB_real_01(ptr noundef captures(none) %0) local_unnamed_addr #5 {
  %2 = alloca %struct.lab_struct, align 8
  %3 = alloca %struct.rgb_struct, align 8
  call void @llvm.lifetime.start.p0(i64 24, ptr nonnull %2) #19
  %4 = load double, ptr %0, align 8, !tbaa !26
  store double %4, ptr %2, align 8, !tbaa !14
  %5 = getelementptr inbounds nuw i8, ptr %0, i64 8
  %6 = load double, ptr %5, align 8, !tbaa !26
  %7 = getelementptr inbounds nuw i8, ptr %2, i64 8
  store double %6, ptr %7, align 8, !tbaa !16
  %8 = getelementptr inbounds nuw i8, ptr %0, i64 16
  %9 = load double, ptr %8, align 8, !tbaa !26
  %10 = getelementptr inbounds nuw i8, ptr %2, i64 16
  store double %9, ptr %10, align 8, !tbaa !17
  call void @llvm.lifetime.start.p0(i64 24, ptr nonnull %3) #19
  call void @LAB2RGB(ptr dead_on_unwind nonnull writable sret(%struct.rgb_struct) align 8 %3, ptr noundef nonnull byval(%struct.lab_struct) align 8 %2)
  %.sroa.0.0.copyload = load double, ptr %3, align 8, !tbaa !26
  %.sroa.4.0..sroa_idx = getelementptr inbounds nuw i8, ptr %3, i64 8
  %.sroa.4.0.copyload = load double, ptr %.sroa.4.0..sroa_idx, align 8, !tbaa !26
  %.sroa.5.0..sroa_idx = getelementptr inbounds nuw i8, ptr %3, i64 16
  %.sroa.5.0.copyload = load double, ptr %.sroa.5.0..sroa_idx, align 8, !tbaa !26
  call void @llvm.lifetime.end.p0(i64 24, ptr nonnull %3) #19
  %11 = fdiv double %.sroa.0.0.copyload, 2.550000e+02
  store double %11, ptr %0, align 8, !tbaa !26
  %12 = fdiv double %.sroa.4.0.copyload, 2.550000e+02
  store double %12, ptr %5, align 8, !tbaa !26
  %13 = fdiv double %.sroa.5.0.copyload, 2.550000e+02
  store double %13, ptr %8, align 8, !tbaa !26
  call void @llvm.lifetime.end.p0(i64 24, ptr nonnull %2) #19
  ret void
}